target datalayout = "e-m:e-p270:32:32-p271:32:32-p272:64:64-i64:64-i128:128-f80:128-n8:16:32:64-S128"
target triple = "x86_64-pc-linux-gnu"

%"class.lean::scope_max_heartbeat" = type { %"class.lean::flet" }
%"class.lean::flet" = type { ptr, i64 }
%"class.lean::scope_cancel_tk" = type { %"class.lean::flet.21" }
%"class.lean::flet.21" = type { ptr, ptr }
%"class.std::function" = type { %"class.std::_Function_base", ptr }
%"class.std::_Function_base" = type { %"union.std::_Any_data", ptr }
%"union.std::_Any_data" = type { %"union.std::_Nocopy_types" }
%"union.std::_Nocopy_types" = type { { i64, i64 } }
%class.anon = type { ptr, ptr }
%struct.lean_object = type { i32, i32 }
%struct.lean_ctor_object = type { %struct.lean_object, [0 x ptr] }

; Function Attrs: mustprogress nounwind uwtable
define linkonce_odr hidden noundef ptr @_ZNSt9_Any_data9_M_accessEv(ptr noundef nonnull align 8 dereferenceable(16) %0) #5 comdat align 2 {
  %2 = alloca ptr, align 8
  store ptr %0, ptr %2, align 8, !tbaa !313
  %3 = load ptr, ptr %2, align 8
  %4 = getelementptr inbounds [16 x i8], ptr %3, i64 0, i64 0
  ret ptr %4
}

; Function Attrs: inlinehint mustprogress nounwind uwtable
define internal noundef ptr @_ZL12lean_to_ctorP11lean_object(ptr noundef %0) #6 {
  %2 = alloca ptr, align 8
  store ptr %0, ptr %2, align 8, !tbaa !24
  %3 = load ptr, ptr %2, align 8, !tbaa !24
  ret ptr %3
}

; Function Attrs: mustprogress nounwind uwtable
define internal void @"_ZNSt14_Function_base13_Base_managerIZ13lean_add_declE3$_0E9_M_createIS1_EEvRSt9_Any_dataOT_St17integral_constantIbLb1EE"(ptr noundef nonnull align 8 dereferenceable(16) %0, ptr noundef nonnull align 8 dereferenceable(16) %1) #5 align 2 {
  %3 = alloca ptr, align 8
  %4 = alloca ptr, align 8
  store ptr %0, ptr %3, align 8, !tbaa !313
  store ptr %1, ptr %4, align 8, !tbaa !24
  %5 = load ptr, ptr %3, align 8, !tbaa !313
  %6 = call noundef ptr @_ZNSt9_Any_data9_M_accessEv(ptr noundef nonnull align 8 dereferenceable(16) %5) #17
  %7 = load ptr, ptr %4, align 8, !tbaa !24
  call void @llvm.memcpy.p0.p0.i64(ptr align 8 %6, ptr align 8 %7, i64 16, i1 false), !tbaa.struct !319
  ret void
}

; Function Attrs: inlinehint mustprogress uwtable
define internal noundef ptr @_ZL18lean_ctor_obj_cptrP11lean_object(ptr noundef %0) #7 {
  %2 = alloca ptr, align 8
  store ptr %0, ptr %2, align 8, !tbaa !24
  %3 = load ptr, ptr %2, align 8, !tbaa !24
  %4 = call noundef ptr @_ZL12lean_to_ctorP11lean_object(ptr noundef %3)
  %5 = getelementptr inbounds nuw %struct.lean_ctor_object, ptr %4, i32 0, i32 1
  %6 = getelementptr inbounds [0 x ptr], ptr %5, i64 0, i64 0
  ret ptr %6
}

; Function Attrs: mustprogress nounwind uwtable
define internal void @"_ZNSt14_Function_base13_Base_managerIZ13lean_add_declE3$_0E15_M_init_functorIS1_EEvRSt9_Any_dataOT_"(ptr noundef nonnull align 8 dereferenceable(16) %0, ptr noundef nonnull align 8 dereferenceable(16) %1) #5 align 2 personality ptr @__gxx_personality_v0 {
  %3 = alloca ptr, align 8
  %4 = alloca ptr, align 8
  store ptr %0, ptr %3, align 8, !tbaa !313
  store ptr %1, ptr %4, align 8, !tbaa !24
  %5 = load ptr, ptr %3, align 8, !tbaa !313
  %6 = load ptr, ptr %4, align 8, !tbaa !24
  invoke void @"_ZNSt14_Function_base13_Base_managerIZ13lean_add_declE3$_0E9_M_createIS1_EEvRSt9_Any_dataOT_St17integral_constantIbLb1EE"(ptr noundef nonnull align 8 dereferenceable(16) %5, ptr noundef nonnull align 8 dereferenceable(16) %6)
          to label %7 unwind label %8

7:                                                ; preds = %2
  ret void

8:                                                ; preds = %2
  %9 = landingpad { ptr, i32 }
          catch ptr null
  %10 = extractvalue { ptr, i32 } %9, 0
  call void @__clang_call_terminate(ptr %10) #21
  unreachable
}

; Function Attrs: mustprogress nounwind uwtable
define internal noundef zeroext i1 @"_ZNSt14_Function_base13_Base_managerIZ13lean_add_declE3$_0E21_M_not_empty_functionIS1_EEbRKT_"(ptr noundef nonnull align 8 dereferenceable(16) %0) #5 align 2 {
  %2 = alloca ptr, align 8
  store ptr %0, ptr %2, align 8, !tbaa !24
  ret i1 true
}

; Function Attrs: mustprogress nounwind uwtable
define linkonce_odr hidden void @_ZNSt14_Function_baseC2Ev(ptr noundef nonnull align 8 dereferenceable(24) %0) unnamed_addr #5 comdat align 2 {
  %2 = alloca ptr, align 8
  store ptr %0, ptr %2, align 8, !tbaa !120
  %3 = load ptr, ptr %2, align 8
  %4 = getelementptr inbounds nuw %"class.std::_Function_base", ptr %3, i32 0, i32 0
  store ptr null, ptr %4, align 8, !tbaa !191
  %5 = getelementptr inbounds nuw %"class.std::_Function_base", ptr %3, i32 0, i32 1
  store ptr null, ptr %5, align 8, !tbaa !102
  ret void
}

; Function Attrs: inlinehint mustprogress uwtable
define internal noundef ptr @_ZL13lean_ctor_getP11lean_objectj(ptr noundef %0, i32 noundef %1) #7 {
  %3 = alloca ptr, align 8
  %4 = alloca i32, align 4
  store ptr %0, ptr %3, align 8, !tbaa !24
  store i32 %1, ptr %4, align 4, !tbaa !29
  %5 = load ptr, ptr %3, align 8, !tbaa !24
  %6 = call noundef ptr @_ZL18lean_ctor_obj_cptrP11lean_object(ptr noundef %5)
  %7 = load i32, ptr %4, align 4, !tbaa !29
  %8 = zext i32 %7 to i64
  %9 = getelementptr inbounds nuw ptr, ptr %6, i64 %8
  %10 = load ptr, ptr %9, align 8, !tbaa !24
  ret ptr %10
}

; Function Attrs: alwaysinline mustprogress nounwind uwtable
define internal noundef zeroext i1 @_ZL14lean_is_scalarP11lean_object(ptr noundef %0) #10 {
  %2 = alloca ptr, align 8
  store ptr %0, ptr %2, align 8, !tbaa !24
  %3 = load ptr, ptr %2, align 8, !tbaa !24
  %4 = ptrtoint ptr %3 to i64
  %5 = and i64 %4, 1
  %6 = icmp eq i64 %5, 1
  ret i1 %6
}

; Function Attrs: mustprogress nounwind uwtable
define linkonce_odr hidden void @_ZN4lean4fletImED2Ev(ptr noundef nonnull align 8 dereferenceable(16) %0) unnamed_addr #5 comdat align 2 {
  %2 = alloca ptr, align 8
  store ptr %0, ptr %2, align 8, !tbaa !108
  %3 = load ptr, ptr %2, align 8
  %4 = getelementptr inbounds nuw %"class.lean::flet", ptr %3, i32 0, i32 1
  %5 = load i64, ptr %4, align 8, !tbaa !110
  %6 = getelementptr inbounds nuw %"class.lean::flet", ptr %3, i32 0, i32 0
  %7 = load ptr, ptr %6, align 8, !tbaa !113
  store i64 %5, ptr %7, align 8, !tbaa !73
  ret void
}

; Function Attrs: mustprogress nounwind uwtable
define linkonce_odr hidden void @_ZN4lean4fletIP11lean_objectED2Ev(ptr noundef nonnull align 8 dereferenceable(16) %0) unnamed_addr #5 comdat align 2 {
  %2 = alloca ptr, align 8
  store ptr %0, ptr %2, align 8, !tbaa !103
  %3 = load ptr, ptr %2, align 8
  %4 = getelementptr inbounds nuw %"class.lean::flet.21", ptr %3, i32 0, i32 1
  %5 = load ptr, ptr %4, align 8, !tbaa !105
  %6 = getelementptr inbounds nuw %"class.lean::flet.21", ptr %3, i32 0, i32 0
  %7 = load ptr, ptr %6, align 8, !tbaa !107
  store ptr %5, ptr %7, align 8, !tbaa !24
  ret void
}

; Function Attrs: mustprogress nounwind uwtable
define linkonce_odr hidden void @_ZNSt14_Function_baseD2Ev(ptr noundef nonnull align 8 dereferenceable(24) %0) unnamed_addr #5 comdat align 2 personality ptr @__gxx_personality_v0 {
  %2 = alloca ptr, align 8
  store ptr %0, ptr %2, align 8, !tbaa !120
  %3 = load ptr, ptr %2, align 8
  %4 = getelementptr inbounds nuw %"class.std::_Function_base", ptr %3, i32 0, i32 1
  %5 = load ptr, ptr %4, align 8, !tbaa !102
  %6 = icmp ne ptr %5, null
  br i1 %6, label %7, label %14

7:                                                ; preds = %1
  %8 = getelementptr inbounds nuw %"class.std::_Function_base", ptr %3, i32 0, i32 1
  %9 = load ptr, ptr %8, align 8, !tbaa !102
  %10 = getelementptr inbounds nuw %"class.std::_Function_base", ptr %3, i32 0, i32 0
  %11 = getelementptr inbounds nuw %"class.std::_Function_base", ptr %3, i32 0, i32 0
  %12 = invoke noundef zeroext i1 %9(ptr noundef nonnull align 8 dereferenceable(16) %10, ptr noundef nonnull align 8 dereferenceable(16) %11, i32 noundef 3)
          to label %13 unwind label %15

13:                                               ; preds = %7
  br label %14

14:                                               ; preds = %13, %1
  ret void

15:                                               ; preds = %7
  %16 = landingpad { ptr, i32 }
          catch ptr null
  %17 = extractvalue { ptr, i32 } %16, 0
  call void @__clang_call_terminate(ptr %17) #21
  unreachable
}

; Function Attrs: mustprogress nounwind uwtable
define internal void @"_ZNSt8functionIFN4lean11environmentEvEEC2IZ13lean_add_declE3$_0vEEOT_"(ptr noundef nonnull align 8 dereferenceable(32) %0, ptr noundef nonnull align 8 dereferenceable(16) %1) unnamed_addr #5 align 2 {
  %3 = alloca ptr, align 8
  %4 = alloca ptr, align 8
  store ptr %0, ptr %3, align 8, !tbaa !77
  store ptr %1, ptr %4, align 8, !tbaa !24
  %5 = load ptr, ptr %3, align 8
  %6 = getelementptr inbounds i8, ptr %5, i64 0
  call void @llvm.memset.p0.i64(ptr align 8 %6, i8 0, i64 24, i1 false)
  call void @_ZNSt14_Function_baseC2Ev(ptr noundef nonnull align 8 dereferenceable(24) %5) #17
  %7 = getelementptr inbounds nuw %"class.std::function", ptr %5, i32 0, i32 1
  store ptr null, ptr %7, align 8, !tbaa !99
  %8 = load ptr, ptr %4, align 8, !tbaa !24
  %9 = call noundef zeroext i1 @"_ZNSt14_Function_base13_Base_managerIZ13lean_add_declE3$_0E21_M_not_empty_functionIS1_EEbRKT_"(ptr noundef nonnull align 8 dereferenceable(16) %8) #17
  br i1 %9, label %10, label %15

10:                                               ; preds = %2
  %11 = getelementptr inbounds nuw %"class.std::_Function_base", ptr %5, i32 0, i32 0
  %12 = load ptr, ptr %4, align 8, !tbaa !24
  call void @"_ZNSt14_Function_base13_Base_managerIZ13lean_add_declE3$_0E15_M_init_functorIS1_EEvRSt9_Any_dataOT_"(ptr noundef nonnull align 8 dereferenceable(16) %11, ptr noundef nonnull align 8 dereferenceable(16) %12) #17
  %13 = getelementptr inbounds nuw %"class.std::function", ptr %5, i32 0, i32 1
  store ptr @"_ZNSt17_Function_handlerIFN4lean11environmentEvEZ13lean_add_declE3$_0E9_M_invokeERKSt9_Any_data", ptr %13, align 8, !tbaa !99
  %14 = getelementptr inbounds nuw %"class.std::_Function_base", ptr %5, i32 0, i32 1
  store ptr @"_ZNSt17_Function_handlerIFN4lean11environmentEvEZ13lean_add_declE3$_0E10_M_managerERSt9_Any_dataRKS5_St18_Manager_operation", ptr %14, align 8, !tbaa !102
  br label %15

15:                                               ; preds = %10, %2
  ret void
}

; Function Attrs: inlinehint mustprogress uwtable
define linkonce_odr hidden noundef ptr @_ZN4lean9cnstr_getEP11lean_objectj(ptr noundef %0, i32 noundef %1) #7 comdat {
  %3 = alloca ptr, align 8
  %4 = alloca i32, align 4
  store ptr %0, ptr %3, align 8, !tbaa !24
  store i32 %1, ptr %4, align 4, !tbaa !29
  %5 = load ptr, ptr %3, align 8, !tbaa !24
  %6 = load i32, ptr %4, align 4, !tbaa !29
  %7 = call noundef ptr @_ZL13lean_ctor_getP11lean_objectj(ptr noundef %5, i32 noundef %6)
  ret ptr %7
}

; Function Attrs: inlinehint mustprogress nounwind uwtable
define linkonce_odr hidden noundef zeroext i1 @_ZN4lean9is_scalarEP11lean_object(ptr noundef %0) #6 comdat {
  %2 = alloca ptr, align 8
  store ptr %0, ptr %2, align 8, !tbaa !24
  %3 = load ptr, ptr %2, align 8, !tbaa !24
  %4 = call noundef zeroext i1 @_ZL14lean_is_scalarP11lean_object(ptr noundef %3)
  ret i1 %4
}

; Function Attrs: mustprogress uwtable
define ptr @lean_add_decl(ptr noundef %0, i64 noundef %1, ptr noundef %2, ptr noundef %3) #0 personality ptr @__gxx_personality_v0 {
  %5 = alloca ptr, align 8
  %6 = alloca i64, align 8
  %7 = alloca ptr, align 8
  %8 = alloca ptr, align 8
  %9 = alloca %"class.lean::scope_max_heartbeat", align 8
  %10 = alloca %"class.lean::scope_cancel_tk", align 8
  %11 = alloca ptr, align 8
  %12 = alloca i32, align 4
  %13 = alloca %"class.std::function", align 8
  %14 = alloca %class.anon, align 8
  store ptr %0, ptr %5, align 8, !tbaa !24
  store i64 %1, ptr %6, align 8, !tbaa !73
  store ptr %2, ptr %7, align 8, !tbaa !24
  store ptr %3, ptr %8, align 8, !tbaa !24
  call void @llvm.lifetime.start.p0(i64 16, ptr %9) #17
  %15 = load i64, ptr %6, align 8, !tbaa !73
  call void @_ZN4lean19scope_max_heartbeatC1Em(ptr noundef nonnull align 8 dereferenceable(16) %9, i64 noundef %15)
  call void @llvm.lifetime.start.p0(i64 16, ptr %10) #17
  %16 = load ptr, ptr %8, align 8, !tbaa !24
  %17 = invoke noundef zeroext i1 @_ZN4lean9is_scalarEP11lean_object(ptr noundef %16)
          to label %18 unwind label %31

18:                                               ; preds = %4
  br i1 %17, label %19, label %20

19:                                               ; preds = %18
  br label %24

20:                                               ; preds = %18
  %21 = load ptr, ptr %8, align 8, !tbaa !24
  %22 = invoke noundef ptr @_ZN4lean9cnstr_getEP11lean_objectj(ptr noundef %21, i32 noundef 0)
          to label %23 unwind label %31

23:                                               ; preds = %20
  br label %24

24:                                               ; preds = %23, %19
  %25 = phi ptr [ null, %19 ], [ %22, %23 ]
  invoke void @_ZN4lean15scope_cancel_tkC1EP11lean_object(ptr noundef nonnull align 8 dereferenceable(16) %10, ptr noundef %25)
          to label %26 unwind label %31

26:                                               ; preds = %24
  call void @llvm.lifetime.start.p0(i64 32, ptr %13) #17
  call void @llvm.lifetime.start.p0(i64 16, ptr %14) #17
  %27 = getelementptr inbounds nuw %class.anon, ptr %14, i32 0, i32 0
  store ptr %5, ptr %27, align 8, !tbaa !75
  %28 = getelementptr inbounds nuw %class.anon, ptr %14, i32 0, i32 1
  store ptr %7, ptr %28, align 8, !tbaa !75
  call void @"_ZNSt8functionIFN4lean11environmentEvEEC2IZ13lean_add_declE3$_0vEEOT_"(ptr noundef nonnull align 8 dereferenceable(32) %13, ptr noundef nonnull align 8 dereferenceable(16) %14) #17
  %29 = invoke noundef ptr @_ZN4lean23catch_kernel_exceptionsINS_11environmentEEEP11lean_objectRKSt8functionIFT_vEE(ptr noundef nonnull align 8 dereferenceable(32) %13)
          to label %30 unwind label %35

30:                                               ; preds = %26
  call void @_ZNSt14_Function_baseD2Ev(ptr noundef nonnull align 8 dereferenceable(32) %13) #17
  call void @llvm.lifetime.end.p0(i64 16, ptr %14) #17
  call void @llvm.lifetime.end.p0(i64 32, ptr %13) #17
  call void @_ZN4lean4fletIP11lean_objectED2Ev(ptr noundef nonnull align 8 dereferenceable(16) %10) #17
  call void @llvm.lifetime.end.p0(i64 16, ptr %10) #17
  call void @_ZN4lean4fletImED2Ev(ptr noundef nonnull align 8 dereferenceable(16) %9) #17
  call void @llvm.lifetime.end.p0(i64 16, ptr %9) #17
  ret ptr %29

31:                                               ; preds = %24, %20, %4
  %32 = landingpad { ptr, i32 }
          cleanup
  %33 = extractvalue { ptr, i32 } %32, 0
  store ptr %33, ptr %11, align 8
  %34 = extractvalue { ptr, i32 } %32, 1
  store i32 %34, ptr %12, align 4
  br label %39

35:                                               ; preds = %26
  %36 = landingpad { ptr, i32 }
          cleanup
  %37 = extractvalue { ptr, i32 } %36, 0
  store ptr %37, ptr %11, align 8
  %38 = extractvalue { ptr, i32 } %36, 1
  store i32 %38, ptr %12, align 4
  call void @_ZNSt14_Function_baseD2Ev(ptr noundef nonnull align 8 dereferenceable(32) %13) #17
  call void @llvm.lifetime.end.p0(i64 16, ptr %14) #17
  call void @llvm.lifetime.end.p0(i64 32, ptr %13) #17
  call void @_ZN4lean4fletIP11lean_objectED2Ev(ptr noundef nonnull align 8 dereferenceable(16) %10) #17
  br label %39

39:                                               ; preds = %35, %31
  call void @llvm.lifetime.end.p0(i64 16, ptr %10) #17
  call void @_ZN4lean4fletImED2Ev(ptr noundef nonnull align 8 dereferenceable(16) %9) #17
  call void @llvm.lifetime.end.p0(i64 16, ptr %9) #17
  br label %40

40:                                               ; preds = %39
  %41 = load ptr, ptr %11, align 8
  %42 = load i32, ptr %12, align 4
  %43 = insertvalue { ptr, i32 } poison, ptr %41, 0
  %44 = insertvalue { ptr, i32 } %43, i32 %42, 1
  resume { ptr, i32 } %44
}