; Function Attrs: mustprogress uwtable
define noundef ptr @lean_add_decl(ptr noundef %0, i64 noundef %1, ptr noundef %2, ptr noundef %3) local_unnamed_addr #0 personality ptr @__gxx_personality_v0 {
  %5 = alloca ptr, align 8
  %6 = alloca ptr, align 8
  %7 = alloca %"class.lean::scope_max_heartbeat", align 8
  %8 = alloca %"class.lean::scope_cancel_tk", align 8
  %9 = alloca %"class.std::function", align 8
  store ptr %0, ptr %5, align 8, !tbaa !24
  store ptr %2, ptr %6, align 8, !tbaa !24
  call void @llvm.lifetime.start.p0(i64 16, ptr nonnull %7) #20
  call void @_ZN4lean19scope_max_heartbeatC1Em(ptr noundef nonnull align 8 dereferenceable(16) %7, i64 noundef %1)
  call void @llvm.lifetime.start.p0(i64 16, ptr nonnull %8) #20
  %10 = ptrtoint ptr %3 to i64
  %11 = and i64 %10, 1
  %.not = icmp eq i64 %11, 0
  br i1 %.not, label %12, label %15

12:                                               ; preds = %4
  %13 = getelementptr inbounds nuw i8, ptr %3, i64 8
  %14 = load ptr, ptr %13, align 8, !tbaa !24
  br label %15

15:                                               ; preds = %12, %4
  %16 = phi ptr [ null, %4 ], [ %14, %12 ]
  invoke void @_ZN4lean15scope_cancel_tkC1EP11lean_object(ptr noundef nonnull align 8 dereferenceable(16) %8, ptr noundef %16)
          to label %17 unwind label %34

17:                                               ; preds = %15
  call void @llvm.lifetime.start.p0(i64 32, ptr nonnull %9) #20
  %18 = getelementptr inbounds nuw i8, ptr %9, i64 16
  %19 = getelementptr inbounds nuw i8, ptr %9, i64 24
  store ptr %5, ptr %9, align 8, !tbaa !90
  %.sroa.5.0..sroa_idx = getelementptr inbounds nuw i8, ptr %9, i64 8
  store ptr %6, ptr %.sroa.5.0..sroa_idx, align 8, !tbaa !90
  store ptr @"_ZNSt17_Function_handlerIFN4lean11environmentEvEZ13lean_add_declE3$_0E9_M_invokeERKSt9_Any_data", ptr %19, align 8, !tbaa !91
  store ptr @"_ZNSt17_Function_handlerIFN4lean11environmentEvEZ13lean_add_declE3$_0E10_M_managerERSt9_Any_dataRKS5_St18_Manager_operation", ptr %18, align 8, !tbaa !94
  %20 = invoke noundef ptr @_ZN4lean23catch_kernel_exceptionsINS_11environmentEEEP11lean_objectRKSt8functionIFT_vEE(ptr noundef nonnull align 8 dereferenceable(32) %9)
          to label %21 unwind label %36

21:                                               ; preds = %17
  %22 = load ptr, ptr %18, align 8, !tbaa !94
  %.not.i = icmp eq ptr %22, null
  br i1 %.not.i, label %_ZNSt14_Function_baseD2Ev.exit, label %23

23:                                               ; preds = %21
  %24 = invoke noundef zeroext i1 %22(ptr noundef nonnull align 8 dereferenceable(32) %9, ptr noundef nonnull align 8 dereferenceable(32) %9, i32 noundef 3)
          to label %_ZNSt14_Function_baseD2Ev.exit unwind label %25

25:                                               ; preds = %23
  %26 = landingpad { ptr, i32 }
          catch ptr null
  %27 = extractvalue { ptr, i32 } %26, 0
  call void @__clang_call_terminate(ptr %27) #23
  unreachable

_ZNSt14_Function_baseD2Ev.exit:                   ; preds = %21, %23
  call void @llvm.lifetime.end.p0(i64 32, ptr nonnull %9) #20
  %28 = getelementptr inbounds nuw i8, ptr %8, i64 8
  %29 = load ptr, ptr %28, align 8, !tbaa !95
  %30 = load ptr, ptr %8, align 8, !tbaa !97
  store ptr %29, ptr %30, align 8, !tbaa !24
  call void @llvm.lifetime.end.p0(i64 16, ptr nonnull %8) #20
  %31 = getelementptr inbounds nuw i8, ptr %7, i64 8
  %32 = load i64, ptr %31, align 8, !tbaa !98
  %33 = load ptr, ptr %7, align 8, !tbaa !101
  store i64 %32, ptr %33, align 8, !tbaa !28
  call void @llvm.lifetime.end.p0(i64 16, ptr nonnull %7) #20
  ret ptr %20

34:                                               ; preds = %15
  %35 = landingpad { ptr, i32 }
          cleanup
  br label %47

36:                                               ; preds = %17
  %37 = landingpad { ptr, i32 }
          cleanup
  %38 = load ptr, ptr %18, align 8, !tbaa !94
  %.not.i6 = icmp eq ptr %38, null
  br i1 %.not.i6, label %_ZNSt14_Function_baseD2Ev.exit7, label %39

39:                                               ; preds = %36
  %40 = invoke noundef zeroext i1 %38(ptr noundef nonnull align 8 dereferenceable(32) %9, ptr noundef nonnull align 8 dereferenceable(32) %9, i32 noundef 3)
          to label %_ZNSt14_Function_baseD2Ev.exit7 unwind label %41

41:                                               ; preds = %39
  %42 = landingpad { ptr, i32 }
          catch ptr null
  %43 = extractvalue { ptr, i32 } %42, 0
  call void @__clang_call_terminate(ptr %43) #23
  unreachable

_ZNSt14_Function_baseD2Ev.exit7:                  ; preds = %36, %39
  call void @llvm.lifetime.end.p0(i64 32, ptr nonnull %9) #20
  %44 = getelementptr inbounds nuw i8, ptr %8, i64 8
  %45 = load ptr, ptr %44, align 8, !tbaa !95
  %46 = load ptr, ptr %8, align 8, !tbaa !97
  store ptr %45, ptr %46, align 8, !tbaa !24
  br label %47

47:                                               ; preds = %_ZNSt14_Function_baseD2Ev.exit7, %34
  %.pn = phi { ptr, i32 } [ %37, %_ZNSt14_Function_baseD2Ev.exit7 ], [ %35, %34 ]
  call void @llvm.lifetime.end.p0(i64 16, ptr nonnull %8) #20
  %48 = getelementptr inbounds nuw i8, ptr %7, i64 8
  %49 = load i64, ptr %48, align 8, !tbaa !98
  %50 = load ptr, ptr %7, align 8, !tbaa !101
  store i64 %49, ptr %50, align 8, !tbaa !28
  call void @llvm.lifetime.end.p0(i64 16, ptr nonnull %7) #20
  resume { ptr, i32 } %.pn
}